target datalayout = "e-m:e-p270:32:32-p271:32:32-p272:64:64-i64:64-i128:128-f80:128-n8:16:32:64-S128"
target triple = "x86_64-pc-linux-gnu"

%struct.php_file_globals = type { i32, i64, i8, i64, ptr, ptr, ptr, ptr, ptr, ptr, ptr, i32, %struct.hostent, ptr, i64 }
%struct.hostent = type { ptr, ptr, i32, i32, ptr }
%struct._zend_array = type { %struct._zend_refcounted_h, %union.anon.0, i32, %union.anon.1, i32, i32, i32, i32, i64, ptr }
%struct._zend_refcounted_h = type { i32, %union.anon }
%union.anon = type { i32 }
%union.anon.0 = type { i32 }
%union.anon.1 = type { ptr }

@file_globals = external global %struct.php_file_globals, align 8
@url_stream_wrappers_hash = internal global %struct._zend_array zeroinitializer, align 8

; Function Attrs: nounwind uwtable
define internal void @clone_wrapper_hash() #0 {
  %1 = alloca ptr, align 8
  %2 = call noalias ptr @_emalloc_56()
  store ptr %2, ptr getelementptr inbounds (%struct.php_file_globals, ptr @file_globals, i32 0, i32 8), align 8
  %3 = load ptr, ptr getelementptr inbounds (%struct.php_file_globals, ptr @file_globals, i32 0, i32 8), align 8
  store ptr @url_stream_wrappers_hash, ptr %1, align 8
  %4 = load ptr, ptr %1, align 8
  %5 = getelementptr inbounds %struct._zend_array, ptr %4, i32 0, i32 5
  %6 = load i32, ptr %5, align 4
  call void @_zend_hash_init(ptr noundef %3, i32 noundef %6, ptr noundef null, i1 noundef zeroext false)
  %7 = load ptr, ptr getelementptr inbounds (%struct.php_file_globals, ptr @file_globals, i32 0, i32 8), align 8
  call void @zend_hash_copy(ptr noundef %7, ptr noundef @url_stream_wrappers_hash, ptr noundef null)
  ret void
}

; Function Attrs: nounwind uwtable
define i32 @php_unregister_url_stream_wrapper_volatile(ptr noundef %0) #0 {
  %2 = alloca ptr, align 8
  store ptr %0, ptr %2, align 8
  %3 = load ptr, ptr getelementptr inbounds (%struct.php_file_globals, ptr @file_globals, i32 0, i32 8), align 8
  %4 = icmp ne ptr %3, null
  br i1 %4, label %6, label %5

5:                                                ; preds = %1
  call void @clone_wrapper_hash()
  br label %6

6:                                                ; preds = %5, %1
  %7 = load ptr, ptr getelementptr inbounds (%struct.php_file_globals, ptr @file_globals, i32 0, i32 8), align 8
  %8 = load ptr, ptr %2, align 8
  %9 = call i32 @zend_hash_del(ptr noundef %7, ptr noundef %8)
  ret i32 %9
}