; Function Attrs: nounwind uwtable
define i32 @php_unregister_url_stream_wrapper_volatile(ptr noundef %0) local_unnamed_addr #2 {
  %2 = load ptr, ptr getelementptr inbounds (%struct.php_file_globals, ptr @file_globals, i64 0, i32 8), align 8
  %.not = icmp eq ptr %2, null
  br i1 %.not, label %3, label %7

3:                                                ; preds = %1
  %4 = tail call noalias ptr @_emalloc_56() #27
  store ptr %4, ptr getelementptr inbounds (%struct.php_file_globals, ptr @file_globals, i64 0, i32 8), align 8
  %5 = load i32, ptr getelementptr inbounds (%struct._zend_array, ptr @url_stream_wrappers_hash, i64 0, i32 5), align 4
  tail call void @_zend_hash_init(ptr noundef %4, i32 noundef %5, ptr noundef null, i1 noundef zeroext false) #27
  %6 = load ptr, ptr getelementptr inbounds (%struct.php_file_globals, ptr @file_globals, i64 0, i32 8), align 8
  tail call void @zend_hash_copy(ptr noundef %6, ptr noundef nonnull @url_stream_wrappers_hash, ptr noundef null) #27
  %.pre = load ptr, ptr getelementptr inbounds (%struct.php_file_globals, ptr @file_globals, i64 0, i32 8), align 8
  br label %7

7:                                                ; preds = %3, %1
  %8 = phi ptr [ %.pre, %3 ], [ %2, %1 ]
  %9 = tail call i32 @zend_hash_del(ptr noundef %8, ptr noundef %0) #27
  ret i32 %9
}